(i__main__
Node
p0
(dp1
S'text'
p2
S'has four legs'
p3
sS'children'
p4
(dp5
S'y'
p6
(i__main__
Node
p7
(dp8
g2
S'is a house pet'
p9
sg4
(dp10
g6
(i__main__
Node
p11
(dp12
g2
S'is small'
p13
sg4
(dp14
S'y'
p15
(i__main__
Node
p16
(dp17
g2
S'meows'
p18
sg4
(dp19
S'y'
p20
(i__main__
Node
p21
(dp22
g2
S'a cat'
p23
sg4
(dp24
sbsS'n'
p25
(i__main__
Node
p26
(dp27
g2
S'has a shell'
p28
sg4
(dp29
S'y'
p30
(i__main__
Node
p31
(dp32
g2
S'a turtle'
p33
sg4
(dp34
sbsS'n'
p35
(i__main__
Node
p36
(dp37
g2
S'has long ears'
p38
sg4
(dp39
S'y'
p40
(i__main__
Node
p41
(dp42
g2
S'a rabbit'
p43
sg4
(dp44
sbsS'n'
p45
(i__main__
Node
p46
(dp47
g2
S'can climb walls'
p48
sg4
(dp49
S'y'
p50
(i__main__
Node
p51
(dp52
g2
S'a gecko'
p53
sg4
(dp54
sbsS'n'
p55
(i__main__
Node
p56
(dp57
g2
S'a rat'
p58
sg4
(dp59
sbssbssbssbssbsS'n'
p60
(i__main__
Node
p61
(dp62
g2
S'a dog'
p63
sg4
(dp64
sbssbsS'n'
p65
(i__main__
Node
p66
(dp67
g2
S'has a trunk'
p68
sg4
(dp69
S'y'
p70
(i__main__
Node
p71
(dp72
g2
S'is about the size of a bread box'
p73
sg4
(dp74
S'y'
p75
(i__main__
Node
p76
(dp77
g2
S'an aardvark'
p78
sg4
(dp79
sbsS'n'
p80
(i__main__
Node
p81
(dp82
g2
S'an elephant'
p83
sg4
(dp84
sbssbsS'n'
p85
(i__main__
Node
p86
(dp87
g2
S'wears a saddle'
p88
sg4
(dp89
S'y'
p90
(i__main__
Node
p91
(dp92
g2
S'a horse'
p93
sg4
(dp94
sbsS'n'
p95
(i__main__
Node
p96
(dp97
g2
S'has a mane'
p98
sg4
(dp99
S'y'
p100
(i__main__
Node
p101
(dp102
g2
S'has a single horn'
p103
sg4
(dp104
S'y'
p105
(i__main__
Node
p106
(dp107
g2
S'a unicorn'
p108
sg4
(dp109
sbsS'n'
p110
(i__main__
Node
p111
(dp112
g2
S'a lion'
p113
sg4
(dp114
sbssbsS'n'
p115
(i__main__
Node
p116
(dp117
g2
S'has fur'
p118
sg4
(dp119
S'y'
p120
(i__main__
Node
p121
(dp122
g2
S'has black and white stripes'
p123
sg4
(dp124
S'y'
p125
(i__main__
Node
p126
(dp127
g2
S'has a mask like a bandit'
p128
sg4
(dp129
S'y'
p130
(i__main__
Node
p131
(dp132
g2
S'a raccoon'
p133
sg4
(dp134
sbsS'n'
p135
(i__main__
Node
p136
(dp137
g2
S'a zebra'
p138
sg4
(dp139
sbssbsS'n'
p140
(i__main__
Node
p141
(dp142
g2
S'has a bushy tail'
p143
sg4
(dp144
S'y'
p145
(i__main__
Node
p146
(dp147
g2
S'is large'
p148
sg4
(dp149
S'y'
p150
(i__main__
Node
p151
(dp152
g2
S'a water buffalo'
p153
sg4
(dp154
sbsS'n'
p155
(i__main__
Node
p156
(dp157
g2
S'eats nuts'
p158
sg4
(dp159
S'y'
p160
(i__main__
Node
p161
(dp162
g2
S'a squirrel'
p163
sg4
(dp164
sbsS'n'
p165
(i__main__
Node
p166
(dp167
g2
S'a fox'
p168
sg4
(dp169
sbssbssbsS'n'
p170
(i__main__
Node
p171
(dp172
g2
S'is large'
p173
sg4
(dp174
S'y'
p175
(i__main__
Node
p176
(dp177
g2
S'is a predator'
p178
sg4
(dp179
S'y'
p180
(i__main__
Node
p181
(dp182
g2
S'can run very fast'
p183
sg4
(dp184
S'y'
p185
(i__main__
Node
p186
(dp187
g2
S'has black and orange stripes'
p188
sg4
(dp189
S'y'
p190
(i__main__
Node
p191
(dp192
g2
S'a tiger'
p193
sg4
(dp194
sbsS'n'
p195
(i__main__
Node
p196
(dp197
g2
S'is all black'
p198
sg4
(dp199
S'y'
p200
(i__main__
Node
p201
(dp202
g2
S'a black jaguar'
p203
sg4
(dp204
sbsS'n'
p205
(i__main__
Node
p206
(dp207
g2
S'a cheetah'
p208
sg4
(dp209
sbssbssbsS'n'
p210
(i__main__
Node
p211
(dp212
g2
S'eats fish'
p213
sg4
(dp214
S'y'
p215
(i__main__
Node
p216
(dp217
g2
S'a bear'
p218
sg4
(dp219
sbsS'n'
p220
(i__main__
Node
p221
(dp222
g2
S'a tiger'
p223
sg4
(dp224
sbssbssbsS'n'
p225
(i__main__
Node
p226
(dp227
g2
S'has a long neck'
p228
sg4
(dp229
S'y'
p230
(i__main__
Node
p231
(dp232
g2
S'a giraffe'
p233
sg4
(dp234
sbsS'n'
p235
(i__main__
Node
p236
(dp237
g2
S'has really thick fur'
p238
sg4
(dp239
S'y'
p240
(i__main__
Node
p241
(dp242
g2
S'a buffalo'
p243
sg4
(dp244
sbsS'n'
p245
(i__main__
Node
p246
(dp247
g2
S'a cow'
p248
sg4
(dp249
sbssbssbssbsS'n'
p250
(i__main__
Node
p251
(dp252
g2
S'eats bananas'
p253
sg4
(dp254
S'y'
p255
(i__main__
Node
p256
(dp257
g2
S'a chimpanzee'
p258
sg4
(dp259
sbsS'n'
p260
(i__main__
Node
p261
(dp262
g2
S'is a rodent'
p263
sg4
(dp264
S'y'
p265
(i__main__
Node
p266
(dp267
g2
S'a capybara'
p268
sg4
(dp269
sbsS'n'
p270
(i__main__
Node
p271
(dp272
g2
S'a beaver'
p273
sg4
(dp274
sbssbssbssbssbssbsS'n'
p275
(i__main__
Node
p276
(dp277
g2
S'is a farm animal'
p278
sg4
(dp279
S'y'
p280
(i__main__
Node
p281
(dp282
g2
S'a pig'
p283
sg4
(dp284
sbsS'n'
p285
(i__main__
Node
p286
(dp287
g2
S'is extinct'
p288
sg4
(dp289
S'y'
p290
(i__main__
Node
p291
(dp292
g2
S'a brontosaurus'
p293
sg4
(dp294
sbsS'n'
p295
(i__main__
Node
p296
(dp297
g2
S'has a big horn'
p298
sg4
(dp299
S'y'
p300
(i__main__
Node
p301
(dp302
g2
S'a rhino'
p303
sg4
(dp304
sbsS'n'
p305
(i__main__
Node
p306
(dp307
g2
S'can roll into a ball'
p308
sg4
(dp309
S'y'
p310
(i__main__
Node
p311
(dp312
g2
S'an armadillo'
p313
sg4
(dp314
sbsS'n'
p315
(i__main__
Node
p316
(dp317
g2
S'is small'
p318
sg4
(dp319
S'y'
p320
(i__main__
Node
p321
(dp322
g2
S'a newt'
p323
sg4
(dp324
sbsS'n'
p325
(i__main__
Node
p326
(dp327
g2
S'a komodo dragon'
p328
sg4
(dp329
sbssbssbssbssbssbssbssbssbssbssbsg65
(i__main__
Node
p330
(dp331
g2
S'has wings'
p332
sg4
(dp333
g6
(i__main__
Node
p334
(dp335
g2
S'has spots'
p336
sg4
(dp337
g6
(i__main__
Node
p338
(dp339
g2
S'eats nectar'
p340
sg4
(dp341
S'y'
p342
(i__main__
Node
p343
(dp344
g2
S'a butterfly'
p345
sg4
(dp346
sbsS'n'
p347
(i__main__
Node
p348
(dp349
g2
S'a ladybug'
p350
sg4
(dp351
sbssbsg65
(i__main__
Node
p352
(dp353
g2
S'lives in a hive'
p354
sg4
(dp355
S'y'
p356
(i__main__
Node
p357
(dp358
g2
S'a honeybee'
p359
sg4
(dp360
sbsS'n'
p361
(i__main__
Node
p362
(dp363
g2
S'eats nectar'
p364
sg4
(dp365
S'y'
p366
(i__main__
Node
p367
(dp368
g2
S'has six legs'
p369
sg4
(dp370
S'y'
p371
(i__main__
Node
p372
(dp373
g2
S'a butterfly'
p374
sg4
(dp375
sbsS'n'
p376
(i__main__
Node
p377
(dp378
g2
S'a hummingbird'
p379
sg4
(dp380
sbssbsS'n'
p381
(i__main__
Node
p382
(dp383
g2
S'is big'
p384
sg4
(dp385
S'y'
p386
(i__main__
Node
p387
(dp388
g2
S'scoops up fish'
p389
sg4
(dp390
S'y'
p391
(i__main__
Node
p392
(dp393
g2
S'quacks'
p394
sg4
(dp395
S'y'
p396
(i__main__
Node
p397
(dp398
g2
S'a duck'
p399
sg4
(dp400
sbsS'n'
p401
(i__main__
Node
p402
(dp403
g2
S'has long thin legs'
p404
sg4
(dp405
S'y'
p406
(i__main__
Node
p407
(dp408
g2
S'an egret'
p409
sg4
(dp410
sbsS'n'
p411
(i__main__
Node
p412
(dp413
g2
S'a pelican'
p414
sg4
(dp415
sbssbssbsS'n'
p416
(i__main__
Node
p417
(dp418
g2
S'lives in the Arctic'
p419
sg4
(dp420
S'y'
p421
(i__main__
Node
p422
(dp423
g2
S'a snowy owl'
p424
sg4
(dp425
sbsS'n'
p426
(i__main__
Node
p427
(dp428
g2
S'a vulture'
p429
sg4
(dp430
sbssbssbsS'n'
p431
(i__main__
Node
p432
(dp433
g2
S'has many colors'
p434
sg4
(dp435
S'y'
p436
(i__main__
Node
p437
(dp438
g2
S'makes holes in trees'
p439
sg4
(dp440
S'y'
p441
(i__main__
Node
p442
(dp443
g2
S'a woodpecker'
p444
sg4
(dp445
sbsS'n'
p446
(i__main__
Node
p447
(dp448
g2
S'a parrot'
p449
sg4
(dp450
sbssbsS'n'
p451
(i__main__
Node
p452
(dp453
g2
S'clucks'
p454
sg4
(dp455
S'y'
p456
(i__main__
Node
p457
(dp458
g2
S'a chicken'
p459
sg4
(dp460
sbsS'n'
p461
(i__main__
Node
p462
(dp463
g2
S'is nocturnal'
p464
sg4
(dp465
S'y'
p466
(i__main__
Node
p467
(dp468
g2
S'a bat'
p469
sg4
(dp470
sbsS'n'
p471
(i__main__
Node
p472
(dp473
g2
S'a raven'
p474
sg4
(dp475
sbssbssbssbssbssbssbssbsg65
(i__main__
Node
p476
(dp477
g2
S'lives in a nest'
p478
sg4
(dp479
S'y'
p480
(i__main__
Node
p481
(dp482
g2
S'is gross'
p483
sg4
(dp484
S'y'
p485
(i__main__
Node
p486
(dp487
g2
S'a cockroach'
p488
sg4
(dp489
sbsS'n'
p490
(i__main__
Node
p491
(dp492
g2
S'an ant'
p493
sg4
(dp494
sbssbsS'n'
p495
(i__main__
Node
p496
(dp497
g2
S'lives in the ocean'
p498
sg4
(dp499
S'y'
p500
(i__main__
Node
p501
(dp502
g2
S'has eight legs'
p503
sg4
(dp504
S'y'
p505
(i__main__
Node
p506
(dp507
g2
S'an octopus'
p508
sg4
(dp509
sbsS'n'
p510
(i__main__
Node
p511
(dp512
g2
S'is large'
p513
sg4
(dp514
S'y'
p515
(i__main__
Node
p516
(dp517
g2
S'has sharp teeth'
p518
sg4
(dp519
S'y'
p520
(i__main__
Node
p521
(dp522
g2
S'a shark'
p523
sg4
(dp524
sbsS'n'
p525
(i__main__
Node
p526
(dp527
g2
S'a whale'
p528
sg4
(dp529
sbssbsS'n'
p530
(i__main__
Node
p531
(dp532
g2
S'has claws'
p533
sg4
(dp534
S'y'
p535
(i__main__
Node
p536
(dp537
g2
S'a lobster'
p538
sg4
(dp539
sbsS'n'
p540
(i__main__
Node
p541
(dp542
g2
S'is really tiny'
p543
sg4
(dp544
S'y'
p545
(i__main__
Node
p546
(dp547
g2
S'a phytoplankton'
p548
sg4
(dp549
sbsS'n'
p550
(i__main__
Node
p551
(dp552
g2
S'an electric eel'
p553
sg4
(dp554
sbssbssbssbssbsS'n'
p555
(i__main__
Node
p556
(dp557
g2
S'lives underground'
p558
sg4
(dp559
S'y'
p560
(i__main__
Node
p561
(dp562
g2
S'an earthworm'
p563
sg4
(dp564
sbsS'n'
p565
(i__main__
Node
p566
(dp567
g2
S'walks on two legs'
p568
sg4
(dp569
S'y'
p570
(i__main__
Node
p571
(dp572
g2
S'a human'
p573
sg4
(dp574
sbsS'n'
p575
(i__main__
Node
p576
(dp577
g2
S'eats leaves'
p578
sg4
(dp579
S'y'
p580
(i__main__
Node
p581
(dp582
g2
S'a caterpillar'
p583
sg4
(dp584
sbsS'n'
p585
(i__main__
Node
p586
(dp587
g2
S'has a rattle on its tail'
p588
sg4
(dp589
S'y'
p590
(i__main__
Node
p591
(dp592
g2
S'a diamondback rattlesnake'
p593
sg4
(dp594
sbsS'n'
p595
(i__main__
Node
p596
(dp597
g2
S'is a constrictor'
p598
sg4
(dp599
S'y'
p600
(i__main__
Node
p601
(dp602
g2
S'a python'
p603
sg4
(dp604
sbsS'n'
p605
(i__main__
Node
p606
(dp607
g2
S'has many legs'
p608
sg4
(dp609
S'y'
p610
(i__main__
Node
p611
(dp612
g2
S'a centipede'
p613
sg4
(dp614
sbsS'n'
p615
(i__main__
Node
p616
(dp617
g2
S'a garter snake'
p618
sg4
(dp619
sbssbssbssbssbssbssbssbssbssbssb.